target datalayout = "e-m:e-p270:32:32-p271:32:32-p272:64:64-i64:64-i128:128-f80:128-n8:16:32:64-S128"
target triple = "x86_64-unknown-linux-gnu"

%struct.isa_ext_data = type { ptr, i32, i32 }
%struct.ArchCPU = type { %struct.CPUState, %struct.CPUArchState, ptr, ptr, %struct.RISCVCPUConfig, ptr, i32, ptr }
%struct.CPUState = type { %struct.DeviceState, ptr, i32, i32, ptr, i32, i8, i8, ptr, i8, i8, i8, i8, i8, i8, i8, i8, i32, i32, i32, i32, i64, i64, i64, [1 x %struct.__jmp_buf_tag], %struct.QemuMutex, %struct.anon, ptr, i32, ptr, ptr, ptr, ptr, i32, i32, %union.anon, %union.anon.0, %union.anon.1, ptr, ptr, i64, i32, ptr, ptr, ptr, i32, i64, i32, %struct.QemuLockCnt, [1 x i64], ptr, i32, i32, i32, i32, i32, ptr, i8, i8, i64, i8, i8, ptr, [8 x i8], [0 x i8], %struct.CPUNegativeOffsetState }
%struct.DeviceState = type { %struct.Object, ptr, ptr, i8, i8, i64, ptr, i32, i8, ptr, %struct.NamedGPIOListHead, %struct.NamedClockListHead, %struct.BusStateHead, i32, i32, i32, %struct.ResettableState, ptr, %struct.MemReentrancyGuard }
%struct.Object = type { ptr, ptr, ptr, i32, ptr }
%struct.NamedGPIOListHead = type { ptr }
%struct.NamedClockListHead = type { ptr }
%struct.BusStateHead = type { ptr }
%struct.ResettableState = type { i32, i8, i8 }
%struct.MemReentrancyGuard = type { i8 }
%struct.__jmp_buf_tag = type { [8 x i64], i32, %struct.__sigset_t }
%struct.__sigset_t = type { [16 x i64] }
%struct.QemuMutex = type { %union.pthread_mutex_t, i8 }
%union.pthread_mutex_t = type { %struct.__pthread_mutex_s }
%struct.__pthread_mutex_s = type { i32, i32, i32, i32, i32, i16, i16, %struct.__pthread_internal_list }
%struct.__pthread_internal_list = type { ptr, ptr }
%struct.anon = type { ptr, ptr }
%union.anon = type { %struct.QTailQLink }
%struct.QTailQLink = type { ptr, ptr }
%union.anon.0 = type { %struct.QTailQLink }
%union.anon.1 = type { %struct.QTailQLink }
%struct.QemuLockCnt = type { i32 }
%struct.CPUNegativeOffsetState = type { %struct.CPUTLB, %union.IcountDecr, i8, [11 x i8] }
%struct.CPUTLB = type { %struct.CPUTLBCommon, [16 x %struct.CPUTLBDesc], [16 x %struct.CPUTLBDescFast] }
%struct.CPUTLBCommon = type { %struct.QemuSpin, i16, i64, i64, i64 }
%struct.QemuSpin = type { i32 }
%struct.CPUTLBDesc = type { i64, i64, i64, i64, i64, i64, [8 x %union.CPUTLBEntry], [8 x %struct.CPUTLBEntryFull], ptr }
%union.CPUTLBEntry = type { %struct.anon.2 }
%struct.anon.2 = type { i64, i64, i64, i64 }
%struct.CPUTLBEntryFull = type { i64, i64, %struct.MemTxAttrs, i8, i8, [3 x i8], %union.anon.3 }
%struct.MemTxAttrs = type { i32 }
%union.anon.3 = type { %struct.anon.4 }
%struct.anon.4 = type { i8, i8, i8 }
%struct.CPUTLBDescFast = type { i64, ptr }
%union.IcountDecr = type { i32 }
%struct.CPUArchState = type { [32 x i64], [32 x i64], [512 x i64], i64, i64, i64, i64, i64, i8, i64, i64, i64, [32 x i64], i64, %struct.float_status, i64, i64, i64, i64, i64, i64, i32, i32, i32, i32, i32, i64, i64, i32, i64, i64, ptr, ptr, i8, i64, i64, [8 x i8] }
%struct.float_status = type { i16, i8, i8, i8, i8, i8, i8, i8, i8, i8, i8, i8 }
%struct.RISCVCPUConfig = type { i8, i8, i8, i8, i8, i8, i8, i8, i8, i8, i8, i8, i8, i8, i8, i8, i8, i8, i8, i8, i8, i8, i8, i8, i8, i8, i8, i8, i8, i8, i8, i8, i8, i8, i8, i8, i8, i8, i8, i8, i8, i8, i8, i8, i8, i8, i8, i8, i8, i8, i8, i8, i8, i8, i8, i8, i8, i8, i8, i8, i8, i8, i8, i8, i8, i8, i8, i8, i8, i8, i8, i8, i8, i8, i8, i8, i8, i8, i32, i64, i64, i8, i8, i8, i8, i8, i8, i8, i8, i8, i8, i8, i8, i32, ptr, ptr, ptr, ptr, i16, i16, i16, i16, i8, i8, i8, i8, i8 }

@.str.249 = private unnamed_addr constant [5 x i8] c"rv%d\00", align 1
@riscv_single_letter_exts = internal constant [12 x i8] c"IEMAFDQCPVH\00", align 1
@.str.313 = private unnamed_addr constant [2 x i8] c"_\00", align 1

; Function Attrs: nounwind sspstrong uwtable
define dso_local zeroext i1 @isa_ext_is_enabled(ptr noundef %cpu, i32 noundef %ext_offset) #0 {
entry:
  %cpu.addr = alloca ptr, align 8
  %ext_offset.addr = alloca i32, align 4
  %ext_enabled = alloca ptr, align 8
  store ptr %cpu, ptr %cpu.addr, align 8
  store i32 %ext_offset, ptr %ext_offset.addr, align 4
  %0 = load ptr, ptr %cpu.addr, align 8
  %cfg = getelementptr inbounds %struct.ArchCPU, ptr %0, i32 0, i32 4
  %1 = load i32, ptr %ext_offset.addr, align 4
  %idx.ext = zext i32 %1 to i64
  %add.ptr = getelementptr i8, ptr %cfg, i64 %idx.ext
  store ptr %add.ptr, ptr %ext_enabled, align 8
  %2 = load ptr, ptr %ext_enabled, align 8
  %3 = load i8, ptr %2, align 1
  %tobool = trunc i8 %3 to i1
  ret i1 %tobool
}

; Function Attrs: nounwind sspstrong uwtable
define internal void @riscv_isa_string_ext(ptr noundef %cpu, ptr noundef %isa_str, i32 noundef %max_str_len) #0 {
entry:
  %cpu.addr = alloca ptr, align 8
  %isa_str.addr = alloca ptr, align 8
  %max_str_len.addr = alloca i32, align 4
  %edata = alloca ptr, align 8
  %old = alloca ptr, align 8
  %new = alloca ptr, align 8
  store ptr %cpu, ptr %cpu.addr, align 8
  store ptr %isa_str, ptr %isa_str.addr, align 8
  store i32 %max_str_len, ptr %max_str_len.addr, align 4
  %0 = load ptr, ptr %isa_str.addr, align 8
  %1 = load ptr, ptr %0, align 8
  store ptr %1, ptr %old, align 8
  %2 = load ptr, ptr %isa_str.addr, align 8
  %3 = load ptr, ptr %2, align 8
  store ptr %3, ptr %new, align 8
  store ptr @isa_edata_arr, ptr %edata, align 8
  br label %for.cond

for.cond:                                         ; preds = %for.inc, %entry
  %4 = load ptr, ptr %edata, align 8
  %tobool = icmp ne ptr %4, null
  br i1 %tobool, label %land.rhs, label %land.end

land.rhs:                                         ; preds = %for.cond
  %5 = load ptr, ptr %edata, align 8
  %name = getelementptr inbounds %struct.isa_ext_data, ptr %5, i32 0, i32 0
  %6 = load ptr, ptr %name, align 8
  %tobool1 = icmp ne ptr %6, null
  br label %land.end

land.end:                                         ; preds = %land.rhs, %for.cond
  %7 = phi i1 [ false, %for.cond ], [ %tobool1, %land.rhs ]
  br i1 %7, label %for.body, label %for.end

for.body:                                         ; preds = %land.end
  %8 = load ptr, ptr %cpu.addr, align 8
  %9 = load ptr, ptr %edata, align 8
  %ext_enable_offset = getelementptr inbounds %struct.isa_ext_data, ptr %9, i32 0, i32 2
  %10 = load i32, ptr %ext_enable_offset, align 4
  %call = call zeroext i1 @isa_ext_is_enabled(ptr noundef %8, i32 noundef %10)
  br i1 %call, label %if.then, label %if.end

if.then:                                          ; preds = %for.body
  %11 = load ptr, ptr %old, align 8
  %12 = load ptr, ptr %edata, align 8
  %name2 = getelementptr inbounds %struct.isa_ext_data, ptr %12, i32 0, i32 0
  %13 = load ptr, ptr %name2, align 8
  %call3 = call noalias ptr (ptr, ...) @g_strconcat(ptr noundef %11, ptr noundef @.str.313, ptr noundef %13, ptr noundef null)
  store ptr %call3, ptr %new, align 8
  %14 = load ptr, ptr %old, align 8
  call void @g_free(ptr noundef %14)
  %15 = load ptr, ptr %new, align 8
  store ptr %15, ptr %old, align 8
  br label %if.end

if.end:                                           ; preds = %if.then, %for.body
  br label %for.inc

for.inc:                                          ; preds = %if.end
  %16 = load ptr, ptr %edata, align 8
  %incdec.ptr = getelementptr %struct.isa_ext_data, ptr %16, i32 1
  store ptr %incdec.ptr, ptr %edata, align 8
  br label %for.cond, !llvm.loop !7

for.end:                                          ; preds = %land.end
  %17 = load ptr, ptr %new, align 8
  %18 = load ptr, ptr %isa_str.addr, align 8
  store ptr %17, ptr %18, align 8
  ret void
}

; Function Attrs: nounwind sspstrong uwtable
define dso_local ptr @riscv_isa_string(ptr noundef %cpu) #0 {
entry:
  %cpu.addr = alloca ptr, align 8
  %i = alloca i32, align 4
  %maxlen = alloca i64, align 8
  %isa_str = alloca ptr, align 8
  %p = alloca ptr, align 8
  store ptr %cpu, ptr %cpu.addr, align 8
  store i64 18, ptr %maxlen, align 8
  %call = call noalias ptr @g_malloc_n(i64 noundef 18, i64 noundef 1) #10
  store ptr %call, ptr %isa_str, align 8
  %0 = load ptr, ptr %isa_str, align 8
  %1 = load ptr, ptr %isa_str, align 8
  %call1 = call i32 (ptr, i64, ptr, ...) @snprintf(ptr noundef %1, i64 noundef 18, ptr noundef @.str.249, i32 noundef 64) #11
  %idx.ext = sext i32 %call1 to i64
  %add.ptr = getelementptr i8, ptr %0, i64 %idx.ext
  store ptr %add.ptr, ptr %p, align 8
  store i32 0, ptr %i, align 4
  br label %for.cond

for.cond:                                         ; preds = %for.inc, %entry
  %2 = load i32, ptr %i, align 4
  %conv = sext i32 %2 to i64
  %cmp = icmp ult i64 %conv, 11
  br i1 %cmp, label %for.body, label %for.end

for.body:                                         ; preds = %for.cond
  %3 = load ptr, ptr %cpu.addr, align 8
  %env = getelementptr inbounds %struct.ArchCPU, ptr %3, i32 0, i32 1
  %misa_ext = getelementptr inbounds %struct.CPUArchState, ptr %env, i32 0, i32 23
  %4 = load i32, ptr %misa_ext, align 8
  %conv3 = zext i32 %4 to i64
  %5 = load i32, ptr %i, align 4
  %idxprom = sext i32 %5 to i64
  %arrayidx = getelementptr [12 x i8], ptr @riscv_single_letter_exts, i64 0, i64 %idxprom
  %6 = load i8, ptr %arrayidx, align 1
  %conv4 = sext i8 %6 to i32
  %sub = sub i32 %conv4, 65
  %sh_prom = zext i32 %sub to i64
  %shl = shl i64 1, %sh_prom
  %and = and i64 %conv3, %shl
  %tobool = icmp ne i64 %and, 0
  br i1 %tobool, label %if.then, label %if.end

if.then:                                          ; preds = %for.body
  %7 = load i32, ptr %i, align 4
  %idxprom5 = sext i32 %7 to i64
  %arrayidx6 = getelementptr [12 x i8], ptr @riscv_single_letter_exts, i64 0, i64 %idxprom5
  %8 = load i8, ptr %arrayidx6, align 1
  %conv7 = zext i8 %8 to i32
  %call8 = call i32 @tolower(i32 noundef %conv7) #9
  %conv9 = trunc i32 %call8 to i8
  %9 = load ptr, ptr %p, align 8
  %incdec.ptr = getelementptr i8, ptr %9, i32 1
  store ptr %incdec.ptr, ptr %p, align 8
  store i8 %conv9, ptr %9, align 1
  br label %if.end

if.end:                                           ; preds = %if.then, %for.body
  br label %for.inc

for.inc:                                          ; preds = %if.end
  %10 = load i32, ptr %i, align 4
  %inc = add i32 %10, 1
  store i32 %inc, ptr %i, align 4
  br label %for.cond, !llvm.loop !5

for.end:                                          ; preds = %for.cond
  %11 = load ptr, ptr %p, align 8
  store i8 0, ptr %11, align 1
  %12 = load ptr, ptr %cpu.addr, align 8
  %cfg = getelementptr inbounds %struct.ArchCPU, ptr %12, i32 0, i32 4
  %short_isa_string = getelementptr inbounds %struct.RISCVCPUConfig, ptr %cfg, i32 0, i32 106
  %13 = load i8, ptr %short_isa_string, align 4
  %tobool10 = trunc i8 %13 to i1
  br i1 %tobool10, label %if.end12, label %if.then11

if.then11:                                        ; preds = %for.end
  %14 = load ptr, ptr %cpu.addr, align 8
  call void @riscv_isa_string_ext(ptr noundef %14, ptr noundef %isa_str, i32 noundef 18)
  br label %if.end12

if.end12:                                         ; preds = %if.then11, %for.end
  %15 = load ptr, ptr %isa_str, align 8
  ret ptr %15
}