; Function Attrs: nounwind sspstrong uwtable
define dso_local ptr @riscv_isa_string(ptr noundef readonly captures(none) %cpu) local_unnamed_addr #3 {
entry:
  %call = tail call noalias dereferenceable_or_null(18) ptr @g_malloc_n(i64 noundef 18, i64 noundef 1) #17
  %call1 = tail call i32 (ptr, i64, ptr, ...) @snprintf(ptr noundef nonnull dereferenceable(1) %call, i64 noundef 18, ptr noundef nonnull @.str.249, i32 noundef 64) #14
  %idx.ext = sext i32 %call1 to i64
  %add.ptr = getelementptr i8, ptr %call, i64 %idx.ext
  %misa_ext = getelementptr inbounds nuw i8, ptr %cpu, i64 15192
  br label %for.body

for.body:                                         ; preds = %entry, %for.inc
  %indvars.iv = phi i64 [ 0, %entry ], [ %indvars.iv.next, %for.inc ]
  %p.09 = phi ptr [ %add.ptr, %entry ], [ %p.1, %for.inc ]
  %0 = load i32, ptr %misa_ext, align 8
  %conv3 = zext i32 %0 to i64
  %arrayidx = getelementptr [12 x i8], ptr @riscv_single_letter_exts, i64 0, i64 %indvars.iv
  %1 = load i8, ptr %arrayidx, align 1
  %conv4 = sext i8 %1 to i64
  %sub = add nsw i64 %conv4, 4294967231
  %sh_prom = and i64 %sub, 4294967295
  %shl = shl nuw i64 1, %sh_prom
  %and = and i64 %shl, %conv3
  %tobool.not = icmp eq i64 %and, 0
  br i1 %tobool.not, label %for.inc, label %if.then

if.then:                                          ; preds = %for.body
  %conv7 = zext i8 %1 to i32
  %call8 = tail call i32 @tolower(i32 noundef %conv7) #16
  %conv9 = trunc i32 %call8 to i8
  %incdec.ptr = getelementptr i8, ptr %p.09, i64 1
  store i8 %conv9, ptr %p.09, align 1
  br label %for.inc

for.inc:                                          ; preds = %for.body, %if.then
  %p.1 = phi ptr [ %incdec.ptr, %if.then ], [ %p.09, %for.body ]
  %indvars.iv.next = add nuw nsw i64 %indvars.iv, 1
  %exitcond.not = icmp eq i64 %indvars.iv.next, 11
  br i1 %exitcond.not, label %for.end, label %for.body, !llvm.loop !5

for.end:                                          ; preds = %for.inc
  store i8 0, ptr %p.1, align 1
  %short_isa_string = getelementptr inbounds nuw i8, ptr %cpu, i64 15476
  %2 = load i8, ptr %short_isa_string, align 4
  %tobool10 = trunc i8 %2 to i1
  br i1 %tobool10, label %if.end12, label %if.then11

if.then11:                                        ; preds = %for.end
  %cfg.i.i = getelementptr inbounds nuw i8, ptr %cpu, i64 15312
  br label %for.body.i

for.body.i:                                       ; preds = %if.then11, %for.inc.i
  %3 = phi ptr [ @.str, %if.then11 ], [ %6, %for.inc.i ]
  %edata.09.i12 = phi ptr [ @isa_edata_arr, %if.then11 ], [ %incdec.ptr.i, %for.inc.i ]
  %old.010.i11 = phi ptr [ %call, %if.then11 ], [ %old.1.i, %for.inc.i ]
  %new.011.i10 = phi ptr [ %call, %if.then11 ], [ %new.1.i, %for.inc.i ]
  %ext_enable_offset.i = getelementptr inbounds nuw i8, ptr %edata.09.i12, i64 12
  %4 = load i32, ptr %ext_enable_offset.i, align 4
  %idx.ext.i.i = zext i32 %4 to i64
  %add.ptr.i.i = getelementptr i8, ptr %cfg.i.i, i64 %idx.ext.i.i
  %5 = load i8, ptr %add.ptr.i.i, align 1
  %tobool.i.i = trunc i8 %5 to i1
  br i1 %tobool.i.i, label %if.then.i, label %for.inc.i

if.then.i:                                        ; preds = %for.body.i
  %call3.i = tail call noalias ptr (ptr, ...) @g_strconcat(ptr noundef %old.010.i11, ptr noundef nonnull @.str.313, ptr noundef nonnull %3, ptr noundef null) #14
  tail call void @g_free(ptr noundef %old.010.i11) #14
  br label %for.inc.i

for.inc.i:                                        ; preds = %if.then.i, %for.body.i
  %old.1.i = phi ptr [ %call3.i, %if.then.i ], [ %old.010.i11, %for.body.i ]
  %new.1.i = phi ptr [ %call3.i, %if.then.i ], [ %new.011.i10, %for.body.i ]
  %incdec.ptr.i = getelementptr i8, ptr %edata.09.i12, i64 16
  %6 = load ptr, ptr %incdec.ptr.i, align 8
  %tobool1.not.i = icmp eq ptr %6, null
  br i1 %tobool1.not.i, label %if.end12, label %for.body.i

if.end12:                                         ; preds = %for.inc.i, %for.end
  %isa_str.0 = phi ptr [ %call, %for.end ], [ %new.1.i, %for.inc.i ]
  ret ptr %isa_str.0
}